target datalayout = "e-m:e-p270:32:32-p271:32:32-p272:64:64-i64:64-i128:128-f80:128-n8:16:32:64-S128"
target triple = "x86_64-pc-linux-gnu"

%struct.rectangle = type { [2 x double], [2 x double] }
%struct.treenode_t = type { double, double, %struct.rectangle, ptr, ptr, %union.anon, i32, i64 }
%union.anon = type { ptr }

@.str = private unnamed_addr constant [5 x i8] c"area\00", align 1
@.str.1 = private unnamed_addr constant [6 x i8] c"inset\00", align 1

; Function Attrs: nounwind uwtable
define void @patchworkLayout(ptr noundef %0) #0 {
  %2 = alloca ptr, align 8
  %3 = alloca ptr, align 8
  %4 = alloca ptr, align 8
  %5 = alloca ptr, align 8
  %6 = alloca ptr, align 8
  %7 = alloca double, align 8
  %8 = alloca %struct.rectangle, align 8
  store ptr %0, ptr %2, align 8, !tbaa !3
  call void @llvm.lifetime.start.p0(i64 8, ptr %3) #10
  call void @llvm.lifetime.start.p0(i64 8, ptr %4) #10
  %9 = load ptr, ptr %2, align 8, !tbaa !3
  %10 = call ptr @agattr(ptr noundef %9, i32 noundef 1, ptr noundef @.str, ptr noundef null)
  store ptr %10, ptr %4, align 8, !tbaa !8
  call void @llvm.lifetime.start.p0(i64 8, ptr %5) #10
  %11 = load ptr, ptr %2, align 8, !tbaa !3
  %12 = call ptr @agattr(ptr noundef %11, i32 noundef 0, ptr noundef @.str, ptr noundef null)
  store ptr %12, ptr %5, align 8, !tbaa !8
  call void @llvm.lifetime.start.p0(i64 8, ptr %6) #10
  %13 = load ptr, ptr %2, align 8, !tbaa !3
  %14 = call ptr @agattr(ptr noundef %13, i32 noundef 0, ptr noundef @.str.1, ptr noundef null)
  store ptr %14, ptr %6, align 8, !tbaa !8
  call void @llvm.lifetime.start.p0(i64 8, ptr %7) #10
  %15 = load ptr, ptr %2, align 8, !tbaa !3
  %16 = load ptr, ptr %5, align 8, !tbaa !8
  %17 = load ptr, ptr %4, align 8, !tbaa !8
  %18 = load ptr, ptr %6, align 8, !tbaa !8
  %19 = call ptr @mkTree(ptr noundef %15, ptr noundef %16, ptr noundef %17, ptr noundef %18)
  store ptr %19, ptr %3, align 8, !tbaa !10
  %20 = load ptr, ptr %3, align 8, !tbaa !10
  %21 = getelementptr inbounds nuw %struct.treenode_t, ptr %20, i32 0, i32 0
  %22 = load double, ptr %21, align 8, !tbaa !12
  store double %22, ptr %7, align 8, !tbaa !18
  %23 = load ptr, ptr %3, align 8, !tbaa !10
  %24 = getelementptr inbounds nuw %struct.treenode_t, ptr %23, i32 0, i32 2
  %25 = getelementptr inbounds nuw %struct.rectangle, ptr %8, i32 0, i32 0
  store double 0.000000e+00, ptr %25, align 8, !tbaa !18
  %26 = getelementptr inbounds double, ptr %25, i64 1
  store double 0.000000e+00, ptr %26, align 8, !tbaa !18
  %27 = getelementptr inbounds nuw %struct.rectangle, ptr %8, i32 0, i32 1
  %28 = load double, ptr %7, align 8, !tbaa !18
  %29 = fadd double %28, 1.000000e-01
  %30 = call double @sqrt(double noundef %29) #10, !tbaa !19
  store double %30, ptr %27, align 8, !tbaa !18
  %31 = getelementptr inbounds double, ptr %27, i64 1
  %32 = load double, ptr %7, align 8, !tbaa !18
  %33 = fadd double %32, 1.000000e-01
  %34 = call double @sqrt(double noundef %33) #10, !tbaa !19
  store double %34, ptr %31, align 8, !tbaa !18
  call void @llvm.memcpy.p0.p0.i64(ptr align 8 %24, ptr align 8 %8, i64 32, i1 false), !tbaa.struct !20
  %35 = load ptr, ptr %3, align 8, !tbaa !10
  call void @layoutTree(ptr noundef %35)
  %36 = load ptr, ptr %3, align 8, !tbaa !10
  call void @walkTree(ptr noundef %36)
  %37 = load ptr, ptr %3, align 8, !tbaa !10
  call void @freeTree(ptr noundef %37)
  call void @llvm.lifetime.end.p0(i64 8, ptr %7) #10
  call void @llvm.lifetime.end.p0(i64 8, ptr %6) #10
  call void @llvm.lifetime.end.p0(i64 8, ptr %5) #10
  call void @llvm.lifetime.end.p0(i64 8, ptr %4) #10
  call void @llvm.lifetime.end.p0(i64 8, ptr %3) #10
  ret void
}